; ModuleID = '59/606.cpp'
source_filename = "59/606.cpp"
target datalayout = "e-m:e-p270:32:32-p271:32:32-p272:64:64-i64:64-f80:128-n8:16:32:64-S128"
target triple = "x86_64-pc-linux-gnu"

%"class.std::ios_base::Init" = type { i8 }
%"class.std::basic_istream" = type { i32 (...)**, i64, %"class.std::basic_ios" }
%"class.std::basic_ios" = type { %"class.std::ios_base", %"class.std::basic_ostream"*, i8, i8, %"class.std::basic_streambuf"*, %"class.std::ctype"*, %"class.std::num_put"*, %"class.std::num_get"* }
%"class.std::ios_base" = type { i32 (...)**, i64, i64, i32, i32, i32, %"struct.std::ios_base::_Callback_list"*, %"struct.std::ios_base::_Words", [8 x %"struct.std::ios_base::_Words"], i32, %"struct.std::ios_base::_Words"*, %"class.std::locale" }
%"struct.std::ios_base::_Callback_list" = type { %"struct.std::ios_base::_Callback_list"*, void (i32, %"class.std::ios_base"*, i32)*, i32, i32 }
%"struct.std::ios_base::_Words" = type { i8*, i64 }
%"class.std::locale" = type { %"class.std::locale::_Impl"* }
%"class.std::locale::_Impl" = type { i32, %"class.std::locale::facet"**, i64, %"class.std::locale::facet"**, i8** }
%"class.std::locale::facet" = type <{ i32 (...)**, i32, [4 x i8] }>
%"class.std::basic_ostream" = type { i32 (...)**, %"class.std::basic_ios" }
%"class.std::basic_streambuf" = type { i32 (...)**, i8*, i8*, i8*, i8*, i8*, i8*, %"class.std::locale" }
%"class.std::ctype" = type <{ %"class.std::locale::facet.base", [4 x i8], %struct.__locale_struct*, i8, [7 x i8], i32*, i32*, i16*, i8, [256 x i8], [256 x i8], i8, [6 x i8] }>
%"class.std::locale::facet.base" = type <{ i32 (...)**, i32 }>
%struct.__locale_struct = type { [13 x %struct.__locale_data*], i16*, i32*, i32*, [13 x i8*] }
%struct.__locale_data = type opaque
%"class.std::num_put" = type { %"class.std::locale::facet.base", [4 x i8] }
%"class.std::num_get" = type { %"class.std::locale::facet.base", [4 x i8] }

@_ZStL8__ioinit = internal global %"class.std::ios_base::Init" zeroinitializer, align 1
@__dso_handle = external hidden global i8
@__const.main.dx = private unnamed_addr constant [4 x i32] [i32 1, i32 0, i32 -1, i32 0], align 16
@__const.main.dy = private unnamed_addr constant [4 x i32] [i32 0, i32 1, i32 0, i32 -1], align 16
@_ZSt3cin = external dso_local global %"class.std::basic_istream", align 8
@_ZSt4cout = external dso_local global %"class.std::basic_ostream", align 8
@llvm.global_ctors = appending global [1 x { i32, void ()*, i8* }] [{ i32, void ()*, i8* } { i32 65535, void ()* @_GLOBAL__sub_I_606.cpp, i8* null }]

; Function Attrs: noinline uwtable
define internal void @__cxx_global_var_init() #0 section ".text.startup" {
  call void @_ZNSt8ios_base4InitC1Ev(%"class.std::ios_base::Init"* @_ZStL8__ioinit)
  %1 = call i32 @__cxa_atexit(void (i8*)* bitcast (void (%"class.std::ios_base::Init"*)* @_ZNSt8ios_base4InitD1Ev to void (i8*)*), i8* getelementptr inbounds (%"class.std::ios_base::Init", %"class.std::ios_base::Init"* @_ZStL8__ioinit, i32 0, i32 0), i8* @__dso_handle) #3
  ret void
}

declare dso_local void @_ZNSt8ios_base4InitC1Ev(%"class.std::ios_base::Init"*) unnamed_addr #1

; Function Attrs: nounwind
declare dso_local void @_ZNSt8ios_base4InitD1Ev(%"class.std::ios_base::Init"*) unnamed_addr #2

; Function Attrs: nounwind
declare dso_local i32 @__cxa_atexit(void (i8*)*, i8*, i8*) #3

; Function Attrs: noinline norecurse uwtable
define dso_local i32 @main() #4 {
  %1 = alloca i32, align 4
  %2 = alloca i32, align 4
  %3 = alloca [102 x [102 x i32]], align 16
  %4 = alloca [102 x [102 x i32]], align 16
  %5 = alloca [4 x i32], align 16
  %6 = alloca [4 x i32], align 16
  %7 = alloca i32, align 4
  %8 = alloca i32, align 4
  %9 = alloca i8, align 1
  %10 = alloca i32, align 4
  %11 = alloca i32, align 4
  %12 = alloca i32, align 4
  %13 = alloca i32, align 4
  %14 = alloca i32, align 4
  %15 = alloca i32, align 4
  %16 = alloca i32, align 4
  %17 = alloca i32, align 4
  %18 = alloca i32, align 4
  %19 = alloca i32, align 4
  %20 = alloca i32, align 4
  %21 = alloca i32, align 4
  %22 = alloca i32, align 4
  %23 = alloca i32, align 4
  store i32 0, i32* %1, align 4
  %24 = bitcast [4 x i32]* %5 to i8*
  call void @llvm.memcpy.p0i8.p0i8.i64(i8* align 16 %24, i8* align 16 bitcast ([4 x i32]* @__const.main.dx to i8*), i64 16, i1 false)
  %25 = bitcast [4 x i32]* %6 to i8*
  call void @llvm.memcpy.p0i8.p0i8.i64(i8* align 16 %25, i8* align 16 bitcast ([4 x i32]* @__const.main.dy to i8*), i64 16, i1 false)
  store i32 0, i32* %7, align 4
  br label %26

26:                                               ; preds = %48, %0
  %27 = load i32, i32* %7, align 4
  %28 = load i32, i32* %2, align 4
  %29 = add nsw i32 %28, 1
  %30 = icmp sle i32 %27, %29
  br i1 %30, label %31, label %51

31:                                               ; preds = %26
  store i32 0, i32* %8, align 4
  br label %32

32:                                               ; preds = %44, %31
  %33 = load i32, i32* %8, align 4
  %34 = load i32, i32* %2, align 4
  %35 = add nsw i32 %34, 1
  %36 = icmp sle i32 %33, %35
  br i1 %36, label %37, label %47

37:                                               ; preds = %32
  %38 = load i32, i32* %7, align 4
  %39 = sext i32 %38 to i64
  %40 = getelementptr inbounds [102 x [102 x i32]], [102 x [102 x i32]]* %3, i64 0, i64 %39
  %41 = load i32, i32* %8, align 4
  %42 = sext i32 %41 to i64
  %43 = getelementptr inbounds [102 x i32], [102 x i32]* %40, i64 0, i64 %42
  store i32 -1, i32* %43, align 4
  br label %44

44:                                               ; preds = %37
  %45 = load i32, i32* %8, align 4
  %46 = add nsw i32 %45, 1
  store i32 %46, i32* %8, align 4
  br label %32

47:                                               ; preds = %32
  br label %48

48:                                               ; preds = %47
  %49 = load i32, i32* %7, align 4
  %50 = add nsw i32 %49, 1
  store i32 %50, i32* %7, align 4
  br label %26

51:                                               ; preds = %26
  %52 = call dereferenceable(280) %"class.std::basic_istream"* @_ZNSirsERi(%"class.std::basic_istream"* @_ZSt3cin, i32* dereferenceable(4) %2)
  store i32 1, i32* %10, align 4
  br label %53

53:                                               ; preds = %91, %51
  %54 = load i32, i32* %10, align 4
  %55 = load i32, i32* %2, align 4
  %56 = icmp sle i32 %54, %55
  br i1 %56, label %57, label %94

57:                                               ; preds = %53
  store i32 1, i32* %11, align 4
  br label %58

58:                                               ; preds = %87, %57
  %59 = load i32, i32* %11, align 4
  %60 = load i32, i32* %2, align 4
  %61 = icmp sle i32 %59, %60
  br i1 %61, label %62, label %90

62:                                               ; preds = %58
  %63 = call dereferenceable(280) %"class.std::basic_istream"* @_ZStrsIcSt11char_traitsIcEERSt13basic_istreamIT_T0_ES6_RS3_(%"class.std::basic_istream"* dereferenceable(280) @_ZSt3cin, i8* dereferenceable(1) %9)
  %64 = load i8, i8* %9, align 1
  %65 = sext i8 %64 to i32
  %66 = icmp eq i32 %65, 46
  br i1 %66, label %67, label %74

67:                                               ; preds = %62
  %68 = load i32, i32* %10, align 4
  %69 = sext i32 %68 to i64
  %70 = getelementptr inbounds [102 x [102 x i32]], [102 x [102 x i32]]* %3, i64 0, i64 %69
  %71 = load i32, i32* %11, align 4
  %72 = sext i32 %71 to i64
  %73 = getelementptr inbounds [102 x i32], [102 x i32]* %70, i64 0, i64 %72
  store i32 0, i32* %73, align 4
  br label %86

74:                                               ; preds = %62
  %75 = load i8, i8* %9, align 1
  %76 = sext i8 %75 to i32
  %77 = icmp eq i32 %76, 64
  br i1 %77, label %78, label %85

78:                                               ; preds = %74
  %79 = load i32, i32* %10, align 4
  %80 = sext i32 %79 to i64
  %81 = getelementptr inbounds [102 x [102 x i32]], [102 x [102 x i32]]* %3, i64 0, i64 %80
  %82 = load i32, i32* %11, align 4
  %83 = sext i32 %82 to i64
  %84 = getelementptr inbounds [102 x i32], [102 x i32]* %81, i64 0, i64 %83
  store i32 1, i32* %84, align 4
  br label %85

85:                                               ; preds = %78, %74
  br label %86

86:                                               ; preds = %85, %67
  br label %87

87:                                               ; preds = %86
  %88 = load i32, i32* %11, align 4
  %89 = add nsw i32 %88, 1
  store i32 %89, i32* %11, align 4
  br label %58

90:                                               ; preds = %58
  br label %91

91:                                               ; preds = %90
  %92 = load i32, i32* %10, align 4
  %93 = add nsw i32 %92, 1
  store i32 %93, i32* %10, align 4
  br label %53

94:                                               ; preds = %53
  %95 = call dereferenceable(280) %"class.std::basic_istream"* @_ZNSirsERi(%"class.std::basic_istream"* @_ZSt3cin, i32* dereferenceable(4) %12)
  store i32 1, i32* %13, align 4
  br label %96

96:                                               ; preds = %239, %94
  %97 = load i32, i32* %13, align 4
  %98 = load i32, i32* %12, align 4
  %99 = icmp slt i32 %97, %98
  br i1 %99, label %100, label %242

100:                                              ; preds = %96
  store i32 0, i32* %14, align 4
  br label %101

101:                                              ; preds = %130, %100
  %102 = load i32, i32* %14, align 4
  %103 = load i32, i32* %2, align 4
  %104 = add nsw i32 %103, 1
  %105 = icmp sle i32 %102, %104
  br i1 %105, label %106, label %133

106:                                              ; preds = %101
  store i32 0, i32* %15, align 4
  br label %107

107:                                              ; preds = %126, %106
  %108 = load i32, i32* %15, align 4
  %109 = load i32, i32* %2, align 4
  %110 = add nsw i32 %109, 1
  %111 = icmp sle i32 %108, %110
  br i1 %111, label %112, label %129

112:                                              ; preds = %107
  %113 = load i32, i32* %14, align 4
  %114 = sext i32 %113 to i64
  %115 = getelementptr inbounds [102 x [102 x i32]], [102 x [102 x i32]]* %3, i64 0, i64 %114
  %116 = load i32, i32* %15, align 4
  %117 = sext i32 %116 to i64
  %118 = getelementptr inbounds [102 x i32], [102 x i32]* %115, i64 0, i64 %117
  %119 = load i32, i32* %118, align 4
  %120 = load i32, i32* %14, align 4
  %121 = sext i32 %120 to i64
  %122 = getelementptr inbounds [102 x [102 x i32]], [102 x [102 x i32]]* %4, i64 0, i64 %121
  %123 = load i32, i32* %15, align 4
  %124 = sext i32 %123 to i64
  %125 = getelementptr inbounds [102 x i32], [102 x i32]* %122, i64 0, i64 %124
  store i32 %119, i32* %125, align 4
  br label %126

126:                                              ; preds = %112
  %127 = load i32, i32* %15, align 4
  %128 = add nsw i32 %127, 1
  store i32 %128, i32* %15, align 4
  br label %107

129:                                              ; preds = %107
  br label %130

130:                                              ; preds = %129
  %131 = load i32, i32* %14, align 4
  %132 = add nsw i32 %131, 1
  store i32 %132, i32* %14, align 4
  br label %101

133:                                              ; preds = %101
  store i32 1, i32* %16, align 4
  br label %134

134:                                              ; preds = %202, %133
  %135 = load i32, i32* %16, align 4
  %136 = load i32, i32* %2, align 4
  %137 = icmp sle i32 %135, %136
  br i1 %137, label %138, label %205

138:                                              ; preds = %134
  store i32 1, i32* %17, align 4
  br label %139

139:                                              ; preds = %198, %138
  %140 = load i32, i32* %17, align 4
  %141 = load i32, i32* %2, align 4
  %142 = icmp sle i32 %140, %141
  br i1 %142, label %143, label %201

143:                                              ; preds = %139
  %144 = load i32, i32* %16, align 4
  %145 = sext i32 %144 to i64
  %146 = getelementptr inbounds [102 x [102 x i32]], [102 x [102 x i32]]* %3, i64 0, i64 %145
  %147 = load i32, i32* %17, align 4
  %148 = sext i32 %147 to i64
  %149 = getelementptr inbounds [102 x i32], [102 x i32]* %146, i64 0, i64 %148
  %150 = load i32, i32* %149, align 4
  %151 = icmp eq i32 %150, 1
  br i1 %151, label %152, label %197

152:                                              ; preds = %143
  store i32 0, i32* %18, align 4
  br label %153

153:                                              ; preds = %193, %152
  %154 = load i32, i32* %18, align 4
  %155 = icmp slt i32 %154, 4
  br i1 %155, label %156, label %196

156:                                              ; preds = %153
  %157 = load i32, i32* %16, align 4
  %158 = load i32, i32* %18, align 4
  %159 = sext i32 %158 to i64
  %160 = getelementptr inbounds [4 x i32], [4 x i32]* %5, i64 0, i64 %159
  %161 = load i32, i32* %160, align 4
  %162 = add nsw i32 %157, %161
  %163 = sext i32 %162 to i64
  %164 = getelementptr inbounds [102 x [102 x i32]], [102 x [102 x i32]]* %3, i64 0, i64 %163
  %165 = load i32, i32* %17, align 4
  %166 = load i32, i32* %18, align 4
  %167 = sext i32 %166 to i64
  %168 = getelementptr inbounds [4 x i32], [4 x i32]* %6, i64 0, i64 %167
  %169 = load i32, i32* %168, align 4
  %170 = add nsw i32 %165, %169
  %171 = sext i32 %170 to i64
  %172 = getelementptr inbounds [102 x i32], [102 x i32]* %164, i64 0, i64 %171
  %173 = load i32, i32* %172, align 4
  %174 = icmp eq i32 %173, 0
  br i1 %174, label %175, label %192

175:                                              ; preds = %156
  %176 = load i32, i32* %16, align 4
  %177 = load i32, i32* %18, align 4
  %178 = sext i32 %177 to i64
  %179 = getelementptr inbounds [4 x i32], [4 x i32]* %5, i64 0, i64 %178
  %180 = load i32, i32* %179, align 4
  %181 = add nsw i32 %176, %180
  %182 = sext i32 %181 to i64
  %183 = getelementptr inbounds [102 x [102 x i32]], [102 x [102 x i32]]* %4, i64 0, i64 %182
  %184 = load i32, i32* %17, align 4
  %185 = load i32, i32* %18, align 4
  %186 = sext i32 %185 to i64
  %187 = getelementptr inbounds [4 x i32], [4 x i32]* %6, i64 0, i64 %186
  %188 = load i32, i32* %187, align 4
  %189 = add nsw i32 %184, %188
  %190 = sext i32 %189 to i64
  %191 = getelementptr inbounds [102 x i32], [102 x i32]* %183, i64 0, i64 %190
  store i32 1, i32* %191, align 4
  br label %192

192:                                              ; preds = %175, %156
  br label %193

193:                                              ; preds = %192
  %194 = load i32, i32* %18, align 4
  %195 = add nsw i32 %194, 1
  store i32 %195, i32* %18, align 4
  br label %153

196:                                              ; preds = %153
  br label %197

197:                                              ; preds = %196, %143
  br label %198

198:                                              ; preds = %197
  %199 = load i32, i32* %17, align 4
  %200 = add nsw i32 %199, 1
  store i32 %200, i32* %17, align 4
  br label %139

201:                                              ; preds = %139
  br label %202

202:                                              ; preds = %201
  %203 = load i32, i32* %16, align 4
  %204 = add nsw i32 %203, 1
  store i32 %204, i32* %16, align 4
  br label %134

205:                                              ; preds = %134
  store i32 0, i32* %19, align 4
  br label %206

206:                                              ; preds = %235, %205
  %207 = load i32, i32* %19, align 4
  %208 = load i32, i32* %2, align 4
  %209 = add nsw i32 %208, 1
  %210 = icmp sle i32 %207, %209
  br i1 %210, label %211, label %238

211:                                              ; preds = %206
  store i32 0, i32* %20, align 4
  br label %212

212:                                              ; preds = %231, %211
  %213 = load i32, i32* %20, align 4
  %214 = load i32, i32* %2, align 4
  %215 = add nsw i32 %214, 1
  %216 = icmp sle i32 %213, %215
  br i1 %216, label %217, label %234

217:                                              ; preds = %212
  %218 = load i32, i32* %19, align 4
  %219 = sext i32 %218 to i64
  %220 = getelementptr inbounds [102 x [102 x i32]], [102 x [102 x i32]]* %4, i64 0, i64 %219
  %221 = load i32, i32* %20, align 4
  %222 = sext i32 %221 to i64
  %223 = getelementptr inbounds [102 x i32], [102 x i32]* %220, i64 0, i64 %222
  %224 = load i32, i32* %223, align 4
  %225 = load i32, i32* %19, align 4
  %226 = sext i32 %225 to i64
  %227 = getelementptr inbounds [102 x [102 x i32]], [102 x [102 x i32]]* %3, i64 0, i64 %226
  %228 = load i32, i32* %20, align 4
  %229 = sext i32 %228 to i64
  %230 = getelementptr inbounds [102 x i32], [102 x i32]* %227, i64 0, i64 %229
  store i32 %224, i32* %230, align 4
  br label %231

231:                                              ; preds = %217
  %232 = load i32, i32* %20, align 4
  %233 = add nsw i32 %232, 1
  store i32 %233, i32* %20, align 4
  br label %212

234:                                              ; preds = %212
  br label %235

235:                                              ; preds = %234
  %236 = load i32, i32* %19, align 4
  %237 = add nsw i32 %236, 1
  store i32 %237, i32* %19, align 4
  br label %206

238:                                              ; preds = %206
  br label %239

239:                                              ; preds = %238
  %240 = load i32, i32* %13, align 4
  %241 = add nsw i32 %240, 1
  store i32 %241, i32* %13, align 4
  br label %96

242:                                              ; preds = %96
  store i32 0, i32* %21, align 4
  store i32 1, i32* %22, align 4
  br label %243

243:                                              ; preds = %269, %242
  %244 = load i32, i32* %22, align 4
  %245 = load i32, i32* %2, align 4
  %246 = icmp sle i32 %244, %245
  br i1 %246, label %247, label %272

247:                                              ; preds = %243
  store i32 1, i32* %23, align 4
  br label %248

248:                                              ; preds = %265, %247
  %249 = load i32, i32* %23, align 4
  %250 = load i32, i32* %2, align 4
  %251 = icmp sle i32 %249, %250
  br i1 %251, label %252, label %268

252:                                              ; preds = %248
  %253 = load i32, i32* %22, align 4
  %254 = sext i32 %253 to i64
  %255 = getelementptr inbounds [102 x [102 x i32]], [102 x [102 x i32]]* %3, i64 0, i64 %254
  %256 = load i32, i32* %23, align 4
  %257 = sext i32 %256 to i64
  %258 = getelementptr inbounds [102 x i32], [102 x i32]* %255, i64 0, i64 %257
  %259 = load i32, i32* %258, align 4
  %260 = icmp eq i32 %259, 1
  br i1 %260, label %261, label %264

261:                                              ; preds = %252
  %262 = load i32, i32* %21, align 4
  %263 = add nsw i32 %262, 1
  store i32 %263, i32* %21, align 4
  br label %264

264:                                              ; preds = %261, %252
  br label %265

265:                                              ; preds = %264
  %266 = load i32, i32* %23, align 4
  %267 = add nsw i32 %266, 1
  store i32 %267, i32* %23, align 4
  br label %248

268:                                              ; preds = %248
  br label %269

269:                                              ; preds = %268
  %270 = load i32, i32* %22, align 4
  %271 = add nsw i32 %270, 1
  store i32 %271, i32* %22, align 4
  br label %243

272:                                              ; preds = %243
  %273 = load i32, i32* %21, align 4
  %274 = call dereferenceable(272) %"class.std::basic_ostream"* @_ZNSolsEi(%"class.std::basic_ostream"* @_ZSt4cout, i32 %273)
  ret i32 0
}

; Function Attrs: argmemonly nounwind willreturn
declare void @llvm.memcpy.p0i8.p0i8.i64(i8* noalias nocapture writeonly, i8* noalias nocapture readonly, i64, i1 immarg) #5

declare dso_local dereferenceable(280) %"class.std::basic_istream"* @_ZNSirsERi(%"class.std::basic_istream"*, i32* dereferenceable(4)) #1

declare dso_local dereferenceable(280) %"class.std::basic_istream"* @_ZStrsIcSt11char_traitsIcEERSt13basic_istreamIT_T0_ES6_RS3_(%"class.std::basic_istream"* dereferenceable(280), i8* dereferenceable(1)) #1

declare dso_local dereferenceable(272) %"class.std::basic_ostream"* @_ZNSolsEi(%"class.std::basic_ostream"*, i32) #1

; Function Attrs: noinline uwtable
define internal void @_GLOBAL__sub_I_606.cpp() #0 section ".text.startup" {
  call void @__cxx_global_var_init()
  ret void
}


!llvm.module.flags = !{!0}
!llvm.ident = !{!1}

!0 = !{i32 1, !"wchar_size", i32 4}
!1 = !{!"clang version 10.0.0-4ubuntu1 "}
